; Function Attrs: nounwind uwtable
define noalias noundef ptr @Gia_ManDupBlackBoxBuildMap(ptr noundef readonly captures(none) %0) local_unnamed_addr #1 {
  %2 = getelementptr inbounds nuw i8, ptr %0, i64 56
  %3 = load i32, ptr %2, align 8
  %4 = tail call noalias dereferenceable_or_null(16) ptr @malloc(i64 noundef 16) #27
  %5 = add i32 %3, -1
  %or.cond.i = icmp ult i32 %5, 15
  %spec.store.select.i = select i1 %or.cond.i, i32 16, i32 %3
  %6 = getelementptr inbounds nuw i8, ptr %4, i64 4
  store i32 0, ptr %6, align 4
  store i32 %spec.store.select.i, ptr %4, align 8
  %.not.i = icmp eq i32 %spec.store.select.i, 0
  br i1 %.not.i, label %Vec_IntAlloc.exit, label %7

7:                                                ; preds = %1
  %8 = sext i32 %spec.store.select.i to i64
  %9 = shl nsw i64 %8, 2
  %10 = tail call noalias ptr @malloc(i64 noundef %9) #27
  br label %Vec_IntAlloc.exit

Vec_IntAlloc.exit:                                ; preds = %1, %7
  %11 = phi ptr [ %10, %7 ], [ null, %1 ]
  %12 = getelementptr inbounds nuw i8, ptr %4, i64 8
  store ptr %11, ptr %12, align 8
  %13 = getelementptr inbounds nuw i8, ptr %0, i64 496
  %14 = load ptr, ptr %13, align 8
  %15 = getelementptr i8, ptr %14, i64 4
  %.val1012 = load i32, ptr %15, align 4
  %16 = icmp sgt i32 %.val1012, 0
  br i1 %16, label %.lr.ph, label %.critedge

.lr.ph:                                           ; preds = %Vec_IntAlloc.exit, %.lr.ph
  %indvars.iv = phi i64 [ %indvars.iv.next, %.lr.ph ], [ 0, %Vec_IntAlloc.exit ]
  %17 = phi ptr [ %24, %.lr.ph ], [ %14, %Vec_IntAlloc.exit ]
  %18 = getelementptr i8, ptr %17, i64 8
  %.val11 = load ptr, ptr %18, align 8
  %19 = getelementptr inbounds nuw i32, ptr %.val11, i64 %indvars.iv
  %20 = load i32, ptr %19, align 4
  %.val = load i32, ptr %6, align 4
  %21 = ashr i32 %20, 16
  %22 = add nsw i32 %.val, %21
  %23 = and i32 %20, 1
  tail call fastcc void @Vec_IntFillExtra(ptr noundef nonnull %4, i32 noundef %22, i32 noundef %23)
  %indvars.iv.next = add nuw nsw i64 %indvars.iv, 1
  %24 = load ptr, ptr %13, align 8
  %25 = getelementptr i8, ptr %24, i64 4
  %.val10 = load i32, ptr %25, align 4
  %26 = sext i32 %.val10 to i64
  %27 = icmp slt i64 %indvars.iv.next, %26
  br i1 %27, label %.lr.ph, label %.critedge, !llvm.loop !465

.critedge:                                        ; preds = %.lr.ph, %Vec_IntAlloc.exit
  ret ptr %4
}